; ModuleID = '16/834.c'
source_filename = "16/834.c"
target datalayout = "e-m:e-p270:32:32-p271:32:32-p272:64:64-i64:64-f80:128-n8:16:32:64-S128"
target triple = "x86_64-pc-linux-gnu"

@.str = private unnamed_addr constant [3 x i8] c"%d\00", align 1
@.str.1 = private unnamed_addr constant [6 x i8] c"00001\00", align 1
@.str.2 = private unnamed_addr constant [9 x i8] c"%d%d%d%d\00", align 1
@.str.3 = private unnamed_addr constant [7 x i8] c"%d%d%d\00", align 1
@.str.4 = private unnamed_addr constant [5 x i8] c"%d%d\00", align 1

; Function Attrs: noinline nounwind uwtable
define dso_local i32 @main() #0 {
  %1 = alloca i32, align 4
  %2 = alloca i32, align 4
  %3 = alloca i32, align 4
  %4 = alloca i32, align 4
  %5 = alloca i32, align 4
  %6 = alloca i32, align 4
  %7 = alloca i32, align 4
  store i32 0, i32* %1, align 4
  %8 = call i32 (i8*, ...) @__isoc99_scanf(i8* getelementptr inbounds ([3 x i8], [3 x i8]* @.str, i64 0, i64 0), i32* %2)
  %9 = load i32, i32* %2, align 4
  %10 = icmp eq i32 %9, 10000
  br i1 %10, label %11, label %13

11:                                               ; preds = %0
  %12 = call i32 (i8*, ...) @printf(i8* getelementptr inbounds ([6 x i8], [6 x i8]* @.str.1, i64 0, i64 0))
  br label %29

13:                                               ; preds = %0
  %14 = load i32, i32* %2, align 4
  %15 = icmp sgt i32 %14, 999
  br i1 %15, label %16, label %17

16:                                               ; preds = %13
  store i32 4, i32* %7, align 4
  br label %28

17:                                               ; preds = %13
  %18 = load i32, i32* %2, align 4
  %19 = icmp sgt i32 %18, 99
  br i1 %19, label %20, label %21

20:                                               ; preds = %17
  store i32 3, i32* %7, align 4
  br label %27

21:                                               ; preds = %17
  %22 = load i32, i32* %2, align 4
  %23 = icmp sgt i32 %22, 9
  br i1 %23, label %24, label %25

24:                                               ; preds = %21
  store i32 2, i32* %7, align 4
  br label %26

25:                                               ; preds = %21
  store i32 1, i32* %7, align 4
  br label %26

26:                                               ; preds = %25, %24
  br label %27

27:                                               ; preds = %26, %20
  br label %28

28:                                               ; preds = %27, %16
  br label %29

29:                                               ; preds = %28, %11
  %30 = load i32, i32* %2, align 4
  %31 = sdiv i32 %30, 1000
  store i32 %31, i32* %3, align 4
  %32 = load i32, i32* %2, align 4
  %33 = load i32, i32* %3, align 4
  %34 = mul nsw i32 %33, 1000
  %35 = sub nsw i32 %32, %34
  %36 = sdiv i32 %35, 100
  store i32 %36, i32* %4, align 4
  %37 = load i32, i32* %2, align 4
  %38 = load i32, i32* %3, align 4
  %39 = mul nsw i32 %38, 1000
  %40 = sub nsw i32 %37, %39
  %41 = load i32, i32* %4, align 4
  %42 = mul nsw i32 %41, 100
  %43 = sub nsw i32 %40, %42
  %44 = sdiv i32 %43, 10
  store i32 %44, i32* %5, align 4
  %45 = load i32, i32* %2, align 4
  %46 = load i32, i32* %3, align 4
  %47 = mul nsw i32 %46, 1000
  %48 = sub nsw i32 %45, %47
  %49 = load i32, i32* %4, align 4
  %50 = mul nsw i32 %49, 100
  %51 = sub nsw i32 %48, %50
  %52 = load i32, i32* %5, align 4
  %53 = mul nsw i32 %52, 10
  %54 = sub nsw i32 %51, %53
  store i32 %54, i32* %6, align 4
  %55 = load i32, i32* %7, align 4
  switch i32 %55, label %74 [
    i32 4, label %56
    i32 3, label %62
    i32 2, label %67
    i32 1, label %71
  ]

56:                                               ; preds = %29
  %57 = load i32, i32* %6, align 4
  %58 = load i32, i32* %5, align 4
  %59 = load i32, i32* %4, align 4
  %60 = load i32, i32* %3, align 4
  %61 = call i32 (i8*, ...) @printf(i8* getelementptr inbounds ([9 x i8], [9 x i8]* @.str.2, i64 0, i64 0), i32 %57, i32 %58, i32 %59, i32 %60)
  br label %74

62:                                               ; preds = %29
  %63 = load i32, i32* %6, align 4
  %64 = load i32, i32* %5, align 4
  %65 = load i32, i32* %4, align 4
  %66 = call i32 (i8*, ...) @printf(i8* getelementptr inbounds ([7 x i8], [7 x i8]* @.str.3, i64 0, i64 0), i32 %63, i32 %64, i32 %65)
  br label %74

67:                                               ; preds = %29
  %68 = load i32, i32* %6, align 4
  %69 = load i32, i32* %5, align 4
  %70 = call i32 (i8*, ...) @printf(i8* getelementptr inbounds ([5 x i8], [5 x i8]* @.str.4, i64 0, i64 0), i32 %68, i32 %69)
  br label %74

71:                                               ; preds = %29
  %72 = load i32, i32* %6, align 4
  %73 = call i32 (i8*, ...) @printf(i8* getelementptr inbounds ([3 x i8], [3 x i8]* @.str, i64 0, i64 0), i32 %72)
  br label %74

74:                                               ; preds = %29, %71, %67, %62, %56
  %75 = load i32, i32* %1, align 4
  ret i32 %75
}

declare dso_local i32 @__isoc99_scanf(i8*, ...) #1

declare dso_local i32 @printf(i8*, ...) #1


!llvm.module.flags = !{!0}
!llvm.ident = !{!1}

!0 = !{i32 1, !"wchar_size", i32 4}
!1 = !{!"clang version 10.0.0-4ubuntu1 "}
